; Function Attrs: mustprogress nofree norecurse nounwind willreturn memory(readwrite, inaccessiblemem: none) uwtable
define dso_local void @_ZN4base5debug21ThreadActivityTracker14ChangeActivityENS0_8Activity4TypeERKNS0_12ActivityDataE(ptr nocapture noundef nonnull readonly align 8 dereferenceable(30) %this, i8 noundef zeroext %type, ptr noundef nonnull readonly align 8 dereferenceable(8) %data) local_unnamed_addr #6 align 2 personality ptr @__gxx_personality_v0 {
if.end:
  %header_ = getelementptr inbounds i8, ptr %this, i64 8
  %0 = load ptr, ptr %header_, align 8
  %current_depth = getelementptr inbounds i8, ptr %0, i64 44
  %1 = load atomic i32, ptr %current_depth acquire, align 4
  %stack_slots_ = getelementptr inbounds i8, ptr %this, i64 24
  %2 = load i32, ptr %stack_slots_, align 8
  %cmp.not = icmp ugt i32 %1, %2
  br i1 %cmp.not, label %if.end23, label %if.then5

if.then5:                                         ; preds = %if.end
  %stack_ = getelementptr inbounds i8, ptr %this, i64 16
  %3 = load ptr, ptr %stack_, align 8
  %sub = add i32 %1, -1
  %idxprom = zext i32 %sub to i64
  %arrayidx = getelementptr inbounds %"struct.base::debug::Activity", ptr %3, i64 %idxprom
  %cmp6.not = icmp eq i8 %type, 0
  br i1 %cmp6.not, label %if.end18, label %if.end17

if.end17:                                         ; preds = %if.then5
  %activity_type = getelementptr inbounds i8, ptr %arrayidx, i64 96
  store i8 %type, ptr %activity_type, align 8
  br label %if.end18

if.end18:                                         ; preds = %if.end17, %if.then5
  %cmp19.not = icmp eq ptr %data, @_ZN4base5debug17kNullActivityDataE
  br i1 %cmp19.not, label %if.end23, label %if.then20

if.then20:                                        ; preds = %if.end18
  %data21 = getelementptr inbounds i8, ptr %arrayidx, i64 104
  %4 = load i64, ptr %data, align 8
  store i64 %4, ptr %data21, align 8
  br label %if.end23

if.end23:                                         ; preds = %if.end18, %if.then20, %if.end
  ret void
}